target datalayout = "e-m:e-p270:32:32-p271:32:32-p272:64:64-i64:64-i128:128-f80:128-n8:16:32:64-S128"
target triple = "x86_64-pc-linux-gnu"

@.str.3 = private unnamed_addr constant [33 x i8] c"SDL.thread.create.entry_function\00", align 1
@.str.4 = private unnamed_addr constant [23 x i8] c"SDL.thread.create.name\00", align 1
@.str.6 = private unnamed_addr constant [27 x i8] c"SDL.thread.create.userdata\00", align 1

; Function Attrs: nounwind uwtable
define hidden ptr @SDL_CreateThreadRuntime_REAL(ptr noundef %0, ptr noundef %1, ptr noundef %2, ptr noundef %3, ptr noundef %4) #0 {
  %6 = alloca ptr, align 8
  %7 = alloca ptr, align 8
  %8 = alloca ptr, align 8
  %9 = alloca ptr, align 8
  %10 = alloca ptr, align 8
  %11 = alloca i32, align 4
  %12 = alloca ptr, align 8
  store ptr %0, ptr %6, align 8
  store ptr %1, ptr %7, align 8
  store ptr %2, ptr %8, align 8
  store ptr %3, ptr %9, align 8
  store ptr %4, ptr %10, align 8
  call void @llvm.lifetime.start.p0(i64 4, ptr %11) #6
  %13 = call i32 @SDL_CreateProperties_REAL()
  store i32 %13, ptr %11, align 4
  %14 = load i32, ptr %11, align 4
  %15 = load ptr, ptr %6, align 8
  %16 = call zeroext i1 @SDL_SetPointerProperty_REAL(i32 noundef %14, ptr noundef @.str.3, ptr noundef %15)
  %17 = load i32, ptr %11, align 4
  %18 = load ptr, ptr %7, align 8
  %19 = call zeroext i1 @SDL_SetStringProperty_REAL(i32 noundef %17, ptr noundef @.str.4, ptr noundef %18)
  %20 = load i32, ptr %11, align 4
  %21 = load ptr, ptr %8, align 8
  %22 = call zeroext i1 @SDL_SetPointerProperty_REAL(i32 noundef %20, ptr noundef @.str.6, ptr noundef %21)
  call void @llvm.lifetime.start.p0(i64 8, ptr %12) #6
  %23 = load i32, ptr %11, align 4
  %24 = load ptr, ptr %9, align 8
  %25 = load ptr, ptr %10, align 8
  %26 = call ptr @SDL_CreateThreadWithPropertiesRuntime_REAL(i32 noundef %23, ptr noundef %24, ptr noundef %25)
  store ptr %26, ptr %12, align 8
  %27 = load i32, ptr %11, align 4
  call void @SDL_DestroyProperties_REAL(i32 noundef %27)
  %28 = load ptr, ptr %12, align 8
  call void @llvm.lifetime.end.p0(i64 8, ptr %12) #6
  call void @llvm.lifetime.end.p0(i64 4, ptr %11) #6
  ret ptr %28
}