; Function Attrs: nounwind uwtable
define hidden noundef ptr @SDL_CreateThreadRuntime_REAL(ptr noundef %0, ptr noundef %1, ptr noundef %2, ptr noundef readnone captures(address_is_null) %3, ptr noundef readnone captures(address_is_null) %4) local_unnamed_addr #0 {
  %6 = tail call i32 @SDL_CreateProperties_REAL() #6
  %7 = tail call zeroext i1 @SDL_SetPointerProperty_REAL(i32 noundef %6, ptr noundef nonnull @.str.3, ptr noundef %0) #6
  %8 = tail call zeroext i1 @SDL_SetStringProperty_REAL(i32 noundef %6, ptr noundef nonnull @.str.4, ptr noundef %1) #6
  %9 = tail call zeroext i1 @SDL_SetPointerProperty_REAL(i32 noundef %6, ptr noundef nonnull @.str.6, ptr noundef %2) #6
  %10 = tail call ptr @SDL_CreateThreadWithPropertiesRuntime_REAL(i32 noundef %6, ptr noundef %3, ptr noundef %4)
  tail call void @SDL_DestroyProperties_REAL(i32 noundef %6) #6
  ret ptr %10
}